target datalayout = "e-m:e-p270:32:32-p271:32:32-p272:64:64-i64:64-i128:128-f80:128-n8:16:32:64-S128"
target triple = "x86_64-pc-linux-gnu"

@stderr = external global ptr, align 8
@.str.1 = private unnamed_addr constant [29 x i8] c"Couldn't read from file: %s\0A\00", align 1

; Function Attrs: mustprogress uwtable
define dso_local void @_Z14fread_or_errorPvmmP8_IO_FILEPKc(ptr noundef %0, i64 noundef %1, i64 noundef %2, ptr noundef %3, ptr noundef %4) #6 {
  %6 = alloca ptr, align 8
  %7 = alloca i64, align 8
  %8 = alloca i64, align 8
  %9 = alloca ptr, align 8
  %10 = alloca ptr, align 8
  store ptr %0, ptr %6, align 8, !tbaa !11
  store i64 %1, ptr %7, align 8, !tbaa !12
  store i64 %2, ptr %8, align 8, !tbaa !12
  store ptr %3, ptr %9, align 8, !tbaa !9
  store ptr %4, ptr %10, align 8, !tbaa !4
  %11 = load i64, ptr %8, align 8, !tbaa !12
  %12 = load ptr, ptr %6, align 8, !tbaa !11
  %13 = load i64, ptr %7, align 8, !tbaa !12
  %14 = load i64, ptr %8, align 8, !tbaa !12
  %15 = load ptr, ptr %9, align 8, !tbaa !9
  %16 = call i64 @fread(ptr noundef %12, i64 noundef %13, i64 noundef %14, ptr noundef %15)
  %17 = icmp ne i64 %11, %16
  br i1 %17, label %18, label %24

18:                                               ; preds = %5
  %19 = load ptr, ptr @stderr, align 8, !tbaa !9
  %20 = load ptr, ptr %10, align 8, !tbaa !4
  %21 = call i32 (ptr, ptr, ...) @fprintf(ptr noundef %19, ptr noundef @.str.1, ptr noundef %20) #3
  %22 = load ptr, ptr %9, align 8, !tbaa !9
  %23 = call i32 @fclose(ptr noundef %22)
  call void @exit(i32 noundef 1) #22
  unreachable

24:                                               ; preds = %5
  ret void
}