; Function Attrs: mustprogress nofree nounwind uwtable
define dso_local void @_Z14fread_or_errorPvmmP8_IO_FILEPKc(ptr noundef captures(none) %0, i64 noundef %1, i64 noundef %2, ptr noundef captures(none) %3, ptr noundef %4) local_unnamed_addr #6 {
  %6 = tail call i64 @fread(ptr noundef %0, i64 noundef %1, i64 noundef %2, ptr noundef %3)
  %.not = icmp eq i64 %2, %6
  br i1 %.not, label %11, label %7

7:                                                ; preds = %5
  %8 = load ptr, ptr @stderr, align 8, !tbaa !4
  %9 = tail call i32 (ptr, ptr, ...) @fprintf(ptr noundef %8, ptr noundef nonnull @.str.1, ptr noundef %4) #29
  %10 = tail call i32 @fclose(ptr noundef %3)
  tail call void @exit(i32 noundef 1) #30
  unreachable

11:                                               ; preds = %5
  ret void
}